target datalayout = "e-m:e-p270:32:32-p271:32:32-p272:64:64-i64:64-i128:128-f80:128-n8:16:32:64-S128"
target triple = "x86_64-pc-linux-gnu"

@g_assert_poison = external global ptr, align 8
@.str.4 = private unnamed_addr constant [39 x i8] c"src/hotspot/cpu/x86/nativeInst_x86.cpp\00", align 1
@.str.19 = private unnamed_addr constant [23 x i8] c"not a jump instruction\00", align 1

; Function Attrs: mustprogress nounwind uwtable
define linkonce_odr hidden noundef zeroext i1 @_ZNK17NativeInstruction15has_rex2_prefixEv(ptr noundef nonnull align 1 dereferenceable(1) %0) #1 comdat align 2 {
  %2 = alloca ptr, align 8
  store ptr %0, ptr %2, align 8
  %3 = load ptr, ptr %2, align 8
  %4 = call noundef zeroext i8 @_ZNK17NativeInstruction8ubyte_atEi(ptr noundef nonnull align 1 dereferenceable(1) %3, i32 noundef 0)
  %5 = zext i8 %4 to i32
  %6 = icmp eq i32 %5, 213
  ret i1 %6
}

; Function Attrs: mustprogress nounwind uwtable
define linkonce_odr hidden noundef zeroext i8 @_ZNK17NativeInstruction8ubyte_atEi(ptr noundef nonnull align 1 dereferenceable(1) %0, i32 noundef %1) #1 comdat align 2 {
  %3 = alloca ptr, align 8
  %4 = alloca i32, align 4
  store ptr %0, ptr %3, align 8
  store i32 %1, ptr %4, align 4
  %5 = load ptr, ptr %3, align 8
  %6 = load i32, ptr %4, align 4
  %7 = call noundef ptr @_ZNK17NativeInstruction7addr_atEi(ptr noundef nonnull align 1 dereferenceable(1) %5, i32 noundef %6)
  %8 = load i8, ptr %7, align 1
  ret i8 %8
}

; Function Attrs: mustprogress nounwind uwtable
define linkonce_odr hidden noundef i32 @_ZNK17NativeMovConstReg16next_inst_offsetEv(ptr noundef nonnull align 1 dereferenceable(1) %0) #1 comdat align 2 {
  %2 = alloca ptr, align 8
  store ptr %0, ptr %2, align 8
  %3 = load ptr, ptr %2, align 8
  %4 = call noundef zeroext i1 @_ZNK17NativeInstruction15has_rex2_prefixEv(ptr noundef nonnull align 1 dereferenceable(1) %3)
  %5 = select i1 %4, i32 11, i32 10
  ret i32 %5
}

; Function Attrs: mustprogress nounwind uwtable
define linkonce_odr hidden noundef ptr @_ZNK17NativeInstruction7addr_atEi(ptr noundef nonnull align 1 dereferenceable(1) %0, i32 noundef %1) #1 comdat align 2 {
  %3 = alloca ptr, align 8
  %4 = alloca i32, align 4
  store ptr %0, ptr %3, align 8
  store i32 %1, ptr %4, align 4
  %5 = load ptr, ptr %3, align 8
  %6 = load i32, ptr %4, align 4
  %7 = sext i32 %6 to i64
  %8 = getelementptr inbounds i8, ptr %5, i64 %7
  ret ptr %8
}

; Function Attrs: mustprogress nounwind uwtable
define linkonce_odr hidden noundef zeroext i1 @_ZN17NativeInstruction11is_jump_regEv(ptr noundef nonnull align 1 dereferenceable(1) %0) #1 comdat align 2 {
  %2 = alloca ptr, align 8
  %3 = alloca i32, align 4
  store ptr %0, ptr %2, align 8
  %4 = load ptr, ptr %2, align 8
  store i32 0, ptr %3, align 4
  %5 = call noundef zeroext i8 @_ZNK17NativeInstruction8ubyte_atEi(ptr noundef nonnull align 1 dereferenceable(1) %4, i32 noundef 0)
  %6 = zext i8 %5 to i32
  %7 = icmp eq i32 %6, 65
  br i1 %7, label %8, label %9

8:                                                ; preds = %1
  store i32 1, ptr %3, align 4
  br label %9

9:                                                ; preds = %8, %1
  %10 = load i32, ptr %3, align 4
  %11 = call noundef zeroext i8 @_ZNK17NativeInstruction8ubyte_atEi(ptr noundef nonnull align 1 dereferenceable(1) %4, i32 noundef %10)
  %12 = zext i8 %11 to i32
  %13 = icmp eq i32 %12, 255
  br i1 %13, label %14, label %21

14:                                               ; preds = %9
  %15 = load i32, ptr %3, align 4
  %16 = add nsw i32 %15, 1
  %17 = call noundef zeroext i8 @_ZNK17NativeInstruction8ubyte_atEi(ptr noundef nonnull align 1 dereferenceable(1) %4, i32 noundef %16)
  %18 = zext i8 %17 to i32
  %19 = and i32 %18, 240
  %20 = icmp eq i32 %19, 224
  br label %21

21:                                               ; preds = %14, %9
  %22 = phi i1 [ false, %9 ], [ %20, %14 ]
  ret i1 %22
}

; Function Attrs: mustprogress nounwind uwtable
define linkonce_odr hidden noundef ptr @_Z20nativeInstruction_atPh(ptr noundef %0) #1 comdat {
  %2 = alloca ptr, align 8
  %3 = alloca ptr, align 8
  store ptr %0, ptr %2, align 8
  %4 = load ptr, ptr %2, align 8
  store ptr %4, ptr %3, align 8
  %5 = load ptr, ptr %3, align 8
  ret ptr %5
}

; Function Attrs: mustprogress nounwind uwtable
define linkonce_odr hidden noundef ptr @_ZNK17NativeMovConstReg24next_instruction_addressEv(ptr noundef nonnull align 1 dereferenceable(1) %0) #1 comdat align 2 {
  %2 = alloca ptr, align 8
  store ptr %0, ptr %2, align 8
  %3 = load ptr, ptr %2, align 8
  %4 = call noundef i32 @_ZNK17NativeMovConstReg16next_inst_offsetEv(ptr noundef nonnull align 1 dereferenceable(1) %3)
  %5 = call noundef ptr @_ZNK17NativeInstruction7addr_atEi(ptr noundef nonnull align 1 dereferenceable(1) %3, i32 noundef %4)
  ret ptr %5
}

; Function Attrs: mustprogress nounwind uwtable
define linkonce_odr hidden noundef ptr @_Z20nativeMovConstReg_atPh(ptr noundef %0) #1 comdat {
  %2 = alloca ptr, align 8
  %3 = alloca ptr, align 8
  store ptr %0, ptr %2, align 8
  %4 = load ptr, ptr %2, align 8
  %5 = getelementptr inbounds i8, ptr %4, i64 0
  store ptr %5, ptr %3, align 8
  %6 = load ptr, ptr %3, align 8
  ret ptr %6
}

; Function Attrs: mustprogress nounwind uwtable
define linkonce_odr hidden noundef ptr @_ZNK10NativeJump19instruction_addressEv(ptr noundef nonnull align 1 dereferenceable(1) %0) #1 comdat align 2 {
  %2 = alloca ptr, align 8
  store ptr %0, ptr %2, align 8
  %3 = load ptr, ptr %2, align 8
  %4 = call noundef ptr @_ZNK17NativeInstruction7addr_atEi(ptr noundef nonnull align 1 dereferenceable(1) %3, i32 noundef 0)
  ret ptr %4
}

; Function Attrs: mustprogress nounwind uwtable
define hidden void @_ZN10NativeJump6verifyEv(ptr noundef nonnull align 1 dereferenceable(1) %0) #1 align 2 {
  %2 = alloca ptr, align 8
  %3 = alloca ptr, align 8
  %4 = alloca ptr, align 8
  store ptr %0, ptr %2, align 8
  %5 = load ptr, ptr %2, align 8
  %6 = call noundef ptr @_ZNK10NativeJump19instruction_addressEv(ptr noundef nonnull align 1 dereferenceable(1) %5)
  %7 = load i8, ptr %6, align 1
  %8 = zext i8 %7 to i32
  %9 = icmp ne i32 %8, 233
  br i1 %9, label %10, label %23

10:                                               ; preds = %1
  %11 = call noundef ptr @_ZNK10NativeJump19instruction_addressEv(ptr noundef nonnull align 1 dereferenceable(1) %5)
  %12 = call noundef ptr @_Z20nativeMovConstReg_atPh(ptr noundef %11)
  store ptr %12, ptr %3, align 8
  %13 = load ptr, ptr %3, align 8
  %14 = call noundef ptr @_ZNK17NativeMovConstReg24next_instruction_addressEv(ptr noundef nonnull align 1 dereferenceable(1) %13)
  %15 = call noundef ptr @_Z20nativeInstruction_atPh(ptr noundef %14)
  store ptr %15, ptr %4, align 8
  %16 = load ptr, ptr %4, align 8
  %17 = call noundef zeroext i1 @_ZN17NativeInstruction11is_jump_regEv(ptr noundef nonnull align 1 dereferenceable(1) %16)
  br i1 %17, label %22, label %18

18:                                               ; preds = %10
  br label %19

19:                                               ; preds = %18
  %20 = load ptr, ptr @g_assert_poison, align 8
  store i8 88, ptr %20, align 1
  call void (i32, ptr, i32, ptr, ...) @_Z12report_fatal11VMErrorTypePKciS1_z(i32 noundef -536870912, ptr noundef @.str.4, i32 noundef 336, ptr noundef @.str.19) #4
  unreachable

21:                                               ; No predecessors!
  br label %22

22:                                               ; preds = %21, %10
  br label %23

23:                                               ; preds = %22, %1
  ret void
}