; Function Attrs: mustprogress nounwind uwtable
define hidden void @_ZN10NativeJump6verifyEv(ptr nocapture noundef nonnull readonly align 1 dereferenceable(1) %0) local_unnamed_addr #0 align 2 {
  %2 = load i8, ptr %0, align 1
  %.not = icmp eq i8 %2, -23
  br i1 %.not, label %17, label %3

3:                                                ; preds = %1
  %4 = icmp eq i8 %2, -43
  %5 = select i1 %4, i64 11, i64 10
  %6 = getelementptr inbounds i8, ptr %0, i64 %5
  %7 = load i8, ptr %6, align 1
  %8 = icmp eq i8 %7, 65
  br i1 %8, label %.split.i, label %.split2.i

.split.i:                                         ; preds = %3
  %9 = getelementptr inbounds i8, ptr %6, i64 1
  %10 = load i8, ptr %9, align 1
  br label %.split2.i

.split2.i:                                        ; preds = %.split.i, %3
  %phi.call.i = phi i8 [ %10, %.split.i ], [ %7, %3 ]
  %.0.i = phi i64 [ 2, %.split.i ], [ 1, %3 ]
  %11 = icmp eq i8 %phi.call.i, -1
  br i1 %11, label %_ZN17NativeInstruction11is_jump_regEv.exit, label %_ZN17NativeInstruction11is_jump_regEv.exit.thread

_ZN17NativeInstruction11is_jump_regEv.exit:       ; preds = %.split2.i
  %12 = getelementptr inbounds i8, ptr %6, i64 %.0.i
  %13 = load i8, ptr %12, align 1
  %14 = and i8 %13, -16
  %15 = icmp eq i8 %14, -32
  br i1 %15, label %17, label %_ZN17NativeInstruction11is_jump_regEv.exit.thread

_ZN17NativeInstruction11is_jump_regEv.exit.thread: ; preds = %.split2.i, %_ZN17NativeInstruction11is_jump_regEv.exit
  %16 = load ptr, ptr @g_assert_poison, align 8
  store i8 88, ptr %16, align 1
  tail call void (i32, ptr, i32, ptr, ...) @_Z12report_fatal11VMErrorTypePKciS1_z(i32 noundef -536870912, ptr noundef nonnull @.str.4, i32 noundef 336, ptr noundef nonnull @.str.19) #8
  unreachable

17:                                               ; preds = %_ZN17NativeInstruction11is_jump_regEv.exit, %1
  ret void
}